; Function Attrs: mustprogress uwtable
define internal noundef zeroext i1 @_ZNK12_GLOBAL__N_123TimespecMatcherMatcherPI8timespecE10gmock_ImplIRKS1_E15MatchAndExplainES5_PN7testing19MatchResultListenerE(ptr nocapture noundef nonnull readonly align 8 dereferenceable(24) %this, ptr nocapture noundef nonnull readonly align 8 dereferenceable(16) %arg, ptr nocapture noundef readonly %result_listener) unnamed_addr #3 align 2 {
entry:
  %ts = getelementptr inbounds i8, ptr %this, i64 8
  %0 = load i64, ptr %ts, align 8
  %1 = load i64, ptr %arg, align 8
  %cmp = icmp eq i64 %0, %1
  br i1 %cmp, label %land.lhs.true, label %if.end

land.lhs.true:                                    ; preds = %entry
  %tv_nsec = getelementptr inbounds i8, ptr %this, i64 16
  %2 = load i64, ptr %tv_nsec, align 8
  %tv_nsec4 = getelementptr inbounds i8, ptr %arg, i64 8
  %3 = load i64, ptr %tv_nsec4, align 8
  %cmp5 = icmp eq i64 %2, %3
  br i1 %cmp5, label %return, label %if.end

if.end:                                           ; preds = %land.lhs.true, %entry
  %stream_.i = getelementptr inbounds i8, ptr %result_listener, i64 8
  %4 = load ptr, ptr %stream_.i, align 8
  %cmp.not.i = icmp eq ptr %4, null
  br i1 %cmp.not.i, label %return, label %_ZN7testing19MatchResultListenerlsIA12_cEERS0_RKT_.exit

_ZN7testing19MatchResultListenerlsIA12_cEERS0_RKT_.exit: ; preds = %if.end
  %call.i = tail call noundef nonnull align 8 dereferenceable(8) ptr @_ZStlsISt11char_traitsIcEERSt13basic_ostreamIcT_ES5_PKc(ptr noundef nonnull align 8 dereferenceable(8) %4, ptr noundef nonnull @.str.218)
  %.pr = load ptr, ptr %stream_.i, align 8
  %cmp.not.i6 = icmp eq ptr %.pr, null
  br i1 %cmp.not.i6, label %return, label %_ZN7testing19MatchResultListenerlsIlEERS0_RKT_.exit

_ZN7testing19MatchResultListenerlsIlEERS0_RKT_.exit: ; preds = %_ZN7testing19MatchResultListenerlsIA12_cEERS0_RKT_.exit
  %5 = load i64, ptr %ts, align 8
  %call.i8 = tail call noundef nonnull align 8 dereferenceable(8) ptr @_ZNSolsEl(ptr noundef nonnull align 8 dereferenceable(8) %.pr, i64 noundef %5)
  %.pr47 = load ptr, ptr %stream_.i, align 8
  %cmp.not.i10 = icmp eq ptr %.pr47, null
  br i1 %cmp.not.i10, label %return, label %_ZN7testing19MatchResultListenerlsIA3_cEERS0_RKT_.exit

_ZN7testing19MatchResultListenerlsIA3_cEERS0_RKT_.exit: ; preds = %_ZN7testing19MatchResultListenerlsIlEERS0_RKT_.exit
  %call.i12 = tail call noundef nonnull align 8 dereferenceable(8) ptr @_ZStlsISt11char_traitsIcEERSt13basic_ostreamIcT_ES5_PKc(ptr noundef nonnull align 8 dereferenceable(8) %.pr47, ptr noundef nonnull @.str.118)
  %.pr49.pr = load ptr, ptr %stream_.i, align 8
  %cmp.not.i14 = icmp eq ptr %.pr49.pr, null
  br i1 %cmp.not.i14, label %return, label %_ZN7testing19MatchResultListenerlsIlEERS0_RKT_.exit17

_ZN7testing19MatchResultListenerlsIlEERS0_RKT_.exit17: ; preds = %_ZN7testing19MatchResultListenerlsIA3_cEERS0_RKT_.exit
  %tv_nsec11 = getelementptr inbounds i8, ptr %this, i64 16
  %6 = load i64, ptr %tv_nsec11, align 8
  %call.i16 = tail call noundef nonnull align 8 dereferenceable(8) ptr @_ZNSolsEl(ptr noundef nonnull align 8 dereferenceable(8) %.pr49.pr, i64 noundef %6)
  %.pr52 = load ptr, ptr %stream_.i, align 8
  %cmp.not.i19 = icmp eq ptr %.pr52, null
  br i1 %cmp.not.i19, label %return, label %_ZN7testing19MatchResultListenerlsIA3_cEERS0_RKT_.exit22

_ZN7testing19MatchResultListenerlsIA3_cEERS0_RKT_.exit22: ; preds = %_ZN7testing19MatchResultListenerlsIlEERS0_RKT_.exit17
  %call.i21 = tail call noundef nonnull align 8 dereferenceable(8) ptr @_ZStlsISt11char_traitsIcEERSt13basic_ostreamIcT_ES5_PKc(ptr noundef nonnull align 8 dereferenceable(8) %.pr52, ptr noundef nonnull @.str.219)
  %.pr54.pr.pr = load ptr, ptr %stream_.i, align 8
  %cmp.not.i24 = icmp eq ptr %.pr54.pr.pr, null
  br i1 %cmp.not.i24, label %return, label %_ZN7testing19MatchResultListenerlsIA10_cEERS0_RKT_.exit

_ZN7testing19MatchResultListenerlsIA10_cEERS0_RKT_.exit: ; preds = %_ZN7testing19MatchResultListenerlsIA3_cEERS0_RKT_.exit22
  %call.i26 = tail call noundef nonnull align 8 dereferenceable(8) ptr @_ZStlsISt11char_traitsIcEERSt13basic_ostreamIcT_ES5_PKc(ptr noundef nonnull align 8 dereferenceable(8) %.pr54.pr.pr, ptr noundef nonnull @.str.220)
  %.pr56 = load ptr, ptr %stream_.i, align 8
  %cmp.not.i28 = icmp eq ptr %.pr56, null
  br i1 %cmp.not.i28, label %return, label %_ZN7testing19MatchResultListenerlsIlEERS0_RKT_.exit31

_ZN7testing19MatchResultListenerlsIlEERS0_RKT_.exit31: ; preds = %_ZN7testing19MatchResultListenerlsIA10_cEERS0_RKT_.exit
  %7 = load i64, ptr %arg, align 8
  %call.i30 = tail call noundef nonnull align 8 dereferenceable(8) ptr @_ZNSolsEl(ptr noundef nonnull align 8 dereferenceable(8) %.pr56, i64 noundef %7)
  %.pr58.pr.pr = load ptr, ptr %stream_.i, align 8
  %cmp.not.i33 = icmp eq ptr %.pr58.pr.pr, null
  br i1 %cmp.not.i33, label %return, label %_ZN7testing19MatchResultListenerlsIA3_cEERS0_RKT_.exit36

_ZN7testing19MatchResultListenerlsIA3_cEERS0_RKT_.exit36: ; preds = %_ZN7testing19MatchResultListenerlsIlEERS0_RKT_.exit31
  %call.i35 = tail call noundef nonnull align 8 dereferenceable(8) ptr @_ZStlsISt11char_traitsIcEERSt13basic_ostreamIcT_ES5_PKc(ptr noundef nonnull align 8 dereferenceable(8) %.pr58.pr.pr, ptr noundef nonnull @.str.118)
  %.pr60 = load ptr, ptr %stream_.i, align 8
  %cmp.not.i38 = icmp eq ptr %.pr60, null
  br i1 %cmp.not.i38, label %return, label %_ZN7testing19MatchResultListenerlsIlEERS0_RKT_.exit41

_ZN7testing19MatchResultListenerlsIlEERS0_RKT_.exit41: ; preds = %_ZN7testing19MatchResultListenerlsIA3_cEERS0_RKT_.exit36
  %tv_nsec18 = getelementptr inbounds i8, ptr %arg, i64 8
  %8 = load i64, ptr %tv_nsec18, align 8
  %call.i40 = tail call noundef nonnull align 8 dereferenceable(8) ptr @_ZNSolsEl(ptr noundef nonnull align 8 dereferenceable(8) %.pr60, i64 noundef %8)
  %.pr63.pr.pr.pr = load ptr, ptr %stream_.i, align 8
  %cmp.not.i43 = icmp eq ptr %.pr63.pr.pr.pr, null
  br i1 %cmp.not.i43, label %return, label %if.then.i44

if.then.i44:                                      ; preds = %_ZN7testing19MatchResultListenerlsIlEERS0_RKT_.exit41
  %call.i45 = tail call noundef nonnull align 8 dereferenceable(8) ptr @_ZStlsISt11char_traitsIcEERSt13basic_ostreamIcT_ES5_PKc(ptr noundef nonnull align 8 dereferenceable(8) %.pr63.pr.pr.pr, ptr noundef nonnull @.str.221)
  br label %return

return:                                           ; preds = %_ZN7testing19MatchResultListenerlsIA12_cEERS0_RKT_.exit, %if.end, %_ZN7testing19MatchResultListenerlsIlEERS0_RKT_.exit17, %_ZN7testing19MatchResultListenerlsIA3_cEERS0_RKT_.exit22, %_ZN7testing19MatchResultListenerlsIlEERS0_RKT_.exit, %_ZN7testing19MatchResultListenerlsIA3_cEERS0_RKT_.exit, %_ZN7testing19MatchResultListenerlsIlEERS0_RKT_.exit31, %_ZN7testing19MatchResultListenerlsIA10_cEERS0_RKT_.exit, %_ZN7testing19MatchResultListenerlsIA3_cEERS0_RKT_.exit36, %if.then.i44, %_ZN7testing19MatchResultListenerlsIlEERS0_RKT_.exit41, %land.lhs.true
  %retval.0 = phi i1 [ true, %land.lhs.true ], [ false, %_ZN7testing19MatchResultListenerlsIlEERS0_RKT_.exit41 ], [ false, %if.then.i44 ], [ false, %_ZN7testing19MatchResultListenerlsIA3_cEERS0_RKT_.exit36 ], [ false, %_ZN7testing19MatchResultListenerlsIA10_cEERS0_RKT_.exit ], [ false, %_ZN7testing19MatchResultListenerlsIlEERS0_RKT_.exit31 ], [ false, %_ZN7testing19MatchResultListenerlsIA3_cEERS0_RKT_.exit ], [ false, %_ZN7testing19MatchResultListenerlsIlEERS0_RKT_.exit ], [ false, %_ZN7testing19MatchResultListenerlsIA3_cEERS0_RKT_.exit22 ], [ false, %_ZN7testing19MatchResultListenerlsIlEERS0_RKT_.exit17 ], [ false, %if.end ], [ false, %_ZN7testing19MatchResultListenerlsIA12_cEERS0_RKT_.exit ]
  ret i1 %retval.0
}